(lp0
(lp1
F3.9997509865794614
aF3.979106865379169
aF4.013757653201668
aF4.0115783475005715
aF4.000537007894929
aF0.999228792926417
aF1.003979372943059
aF111.00922879292642
aF1.0073864796370575
aF111.01397937294306
aF1.0030626383641559
aF111.00146552052702
aF0.991465520527021
aF111.01306263836416
aF111.01738647963705
aF28.0
aa(lp2
F3.9993863954848976
aF3.979498915646367
aF4.0117503620929345
aF4.016222767634419
aF4.000177637823629
aF0.9989128604588783
aF1.0031190428571284
aF111.01728609420209
aF1.0076875173538402
aF111.02580982900598
aF1.0130932642057062
aF111.00791007650297
aF0.9965564111371822
aF111.02246709190582
aF111.02327215452819
aF28.0
aa(lp3
F4.039380247949959
aF3.939703998662334
aF3.9716328595356085
aF4.042132287262511
aF3.960175867314031
aF0.9992171158178992
aF1.0131502320646435
aF111.09373783876221
aF1.0177643203552602
aF110.95180233725988
aF1.0159615145509575
aF111.0191834691332
aF1.0065219592664945
aF111.08936149526401
aF111.12674604376603
aF28.0
aa(lp4
F4.059732423205671
aF3.9509864067861336
aF3.9716056703364098
aF4.046543771237119
aF3.9545506297423323
aF1.0002398568614284
aF1.0160239473714059
aF111.10196198810594
aF1.015937050922943
aF110.94972540152474
aF1.0261211275465763
aF111.01480307802927
aF1.0136809168992709
aF111.09302636573551
aF111.11991822765947
aF28.0
aa(lp5
F4.067741691160262
aF3.959435806534628
aF3.983058441785821
aF4.0870092084979746
aF3.924965490342942
aF1.0029723220209954
aF1.017100400080904
aF111.1122063992118
aF1.0125606274788825
aF110.94492552227773
aF1.0363823383334723
aF111.039027170086
aF1.0035441080023337
aF111.11660663468388
aF111.09169235187636
aF24.0
aa(lp6
F4.106255133530583
aF3.9990301636768875
aF4.000697079986515
aF4.127879289376075
aF3.8857158371097906
aF0.9999884169856947
aF1.006929396461642
aF111.10705693795343
aF1.002435022127181
aF110.87854612245249
aF1.0467461569263445
aF111.02945513914686
aF0.9935087491991952
aF111.42136148612987
aF111.24233006467492
aF24.0
aa(lp7
F4.14731768358548
aF4.039020465060188
aF4.008059807191647
aF4.161819243561497
aF3.9140721163534877
aF0.9972847693475435
aF1.0114593494468114
aF111.04512846966101
aF0.9924106721593768
aF110.84822732077943
aF1.0572136183372014
aF111.00933864187051
aF0.9835736618826694
aF111.4558934499484
aF111.22103143165057
aF24.0
aa(lp8
F4.188343411146504
aF4.079410663793523
aF4.012110276104345
aF4.203437435334014
aF3.9266381303641498
aF0.9926731832884264
aF1.0212019577961788
aF111.0065382433803
aF0.9824865713550723
aF110.8037999508638
aF1.0677857541942006
aF110.96393739343884
aF0.973737925428367
aF111.5152378701858
aF111.20938982636034
aF24.0
aa(lp9
F4.226631940934737
aF4.111583410650737
aF4.017625877679871
aF4.2454718086428525
aF3.9431751078092123
aF0.9935929650181021
aF1.0314139769783413
aF110.96677627170142
aF0.9781602760749386
aF110.75433548696108
aF1.078463611411641
aF110.91500028643162
aF0.9640005463098951
aF111.57878605422135
aF111.1984372701722
aF24.0
aa(lp10
F4.262537276222523
aF4.142546109449633
aF4.023294488555166
aF4.28792652515191
aF3.960218119505599
aF0.9943755997651199
aF1.0417281164118528
aF110.9287618684215
aF0.9741010506354648
aF110.70892977298504
aF1.0892482472190526
aF110.8689110076428
aF0.9543605409739504
aF111.63450407235675
aF111.18580082439615
aF24.0
aa(lp11
F4.305162644585493
aF4.183971570184848
aF4.033200812013291
aF4.330805648888194
aF3.976847473433624
aF0.9919973399062771
aF1.0423953188932344
aF110.83717343682599
aF0.9643600404883907
aF110.65919426473874
aF1.1001407293867684
aF110.8478137886819
aF0.9448169357886154
aF111.67334056406558
aF111.14752297869555
aF24.0
aa(lp12
F4.336016763543207
aF4.213143871296859
aF4.038963991484632
aF4.374113696711307
aF3.992645381233645
aF0.9928130548112042
aF1.0528192714611062
aF110.8044178003414
aF0.9612276854975224
aF110.62315898773521
aF1.1111421363099296
aF110.80842771049882
aF0.9353687666065466
aF111.71567359326285
aF111.13198397225656
aF24.0
aa(lp13
F4.379376928965609
aF4.255275309479309
aF4.068400264500365
aF4.330372574710374
aF3.9527190912987047
aF1.0027411825059898
aF1.042291079264712
aF110.5552248048122
aF0.9516154090898912
aF110.45127021214714
aF1.1222535573400365
aF110.7822156228931
aF0.9260150791887675
aF111.75411302955406
aF111.0651610672895
aF24.0
aa(lp14
F4.335583160791769
aF4.22465482826203
aF4.068767631053681
aF4.340012669385276
aF3.9468534091578817
aF1.0022844284302923
aF1.0411133652603801
aF110.53348270827262
aF0.9551787188575894
aF110.44761415650993
aF1.1334760924641694
aF110.791453010192
aF0.9167549320078169
aF111.77254527975586
aF111.07541403080387
aF24.0
aa(lp15
F4.359363209899244
aF4.266901372316677
aF4.071413702044025
aF4.377945839665538
aF3.9547325403084836
aF0.9945694408315543
aF1.0515244985881083
aF110.51237085662822
aF0.9456269358970175
aF110.43958483607538
aF1.144810853151116
aF110.76668255269304
aF0.9075873827503457
aF111.82289114242342
aF111.06415507668675
aF24.0
aa(lp16
F4.402956841349334
aF4.309570385677151
aF4.086113243747925
aF4.3341663821934775
aF3.9193756167903953
aF1.00161645739065
aF1.0410092537519338
aF110.26309009229226
aF0.9361706669007399
aF110.26882737582461
aF1.1562589614990355
aF110.71492066817376
aF0.8985115090913224
aF111.86204002157254
aF111.00398062087528
aF24.0
aa(lp17
F4.358927275517537
aF4.269470103326288
aF4.102953655251576
aF4.377063946647992
aF3.935038166770136
aF1.0054501936686961
aF1.0305991619727313
aF110.23421002185134
aF0.9417549421862641
aF110.23421931079606
aF1.167821550359107
aF110.71618151872562
aF0.8939948340199568
aF111.90762239709564
aF111.02526254980428
aF24.0
aa(lp18
F4.375252015974647
aF4.312164802425361
aF4.110436526480163
aF4.417866112326751
aF3.952057602024792
aF0.9977865958896655
aF1.0371135351315044
aF110.21188016514628
aF0.9323373946985977
aF110.22699370123077
aF1.1794997655925485
aF110.69726479332293
aF0.8850548857895459
aF111.9630147239784
aF111.02826473064243
aF24.0
aa(lp19
F4.419004533552937
aF4.349715876012135
aF4.151540891334591
aF4.436089717369879
aF3.979257413532573
aF1.0064284050825323
aF1.0267424014383129
aF110.11086203185803
aF0.9240845771387863
aF110.15087753522813
aF1.1912947624930361
aF110.68267617010277
aF0.876204338484939
aF111.97478726953744
aF111.00920884868904
aF24.0
aa(lp20
F4.4631945755268525
aF4.388677311155743
aF4.193056299867132
aF4.458160098905994
aF4.015150508448757
aF1.0150701020276165
aF1.0164749853074
aF109.99485603162078
aF0.9159283637385518
aF110.06490784668692
aF1.203207709146365
aF110.65858724341787
aF0.8674422970666937
aF111.9798023731002
aF110.99002207649556
aF24.0
aa(lp21
F4.418562635215687
aF4.346201752235671
aF4.214440485953032
aF4.496968768159492
aF4.030512400373843
aF1.0213969317960356
aF1.006310236175714
aF109.95712117381723
aF0.9231795295713945
aF110.0251502899228
aF1.2152397854309498
aF110.66138717982966
aF0.8587678877974487
aF112.01607620462468
aF111.00201168019689
aF24.0
aa(lp22
F4.462748258942533
aF4.388294791823593
aF4.256584889917157
aF4.493683138202928
aF4.044187738051147
aF1.0315379884792393
aF0.9962471344800272
aF109.84725857111737
aF0.9140149451032707
aF109.93458704429307
aF1.2273921822807492
aF110.64530130162608
aF0.8501802117521452
aF112.01470614446177
aF110.98483675589388
aF24.0
aa(lp23
F4.4181207775105715
aF4.382064251779762
aF4.2462128619066775
aF4.506844231041383
aF4.042542369361055
aF1.0297481701525064
aF1.006209604814731
aF109.80924271062511
aF0.9156959092500981
aF109.92177133725642
aF1.2396661019023454
aF110.64468665597796
aF0.8416784152674947
aF112.03806138658315
aF111.00732304856018
aF24.0
aa(lp24
F4.459286521910693
aF4.42588488729045
aF4.288674990080114
aF4.504286176180779
aF4.056304476291391
aF1.038337018633881
aF1.0055532410269532
aF109.75390968670565
aF0.906538957164578
aF109.86098331231872
aF1.252062762339309
aF110.63921073719061
aF0.8332616325132864
aF112.04001222083728
aF110.99611282609064
aF24.0
aa(lp25
F4.414693658426993
aF4.387096361398634
aF4.294949339129499
aF4.549329026306006
aF4.096867518817391
aF1.0408543161174924
aF0.9988094682898404
aF109.73901700967302
aF0.9096733564248985
aF109.83313354518808
aF1.2645833824840171
aF110.64826748895887
aF0.8415942467500132
aF112.0885727920717
aF111.05747041665897
aF24.0
aa(lp26
F4.370546723467897
aF4.430967324472322
aF4.251999846221403
aF4.594822316027036
aF4.137836193265938
aF1.0512628591094084
aF1.0013149033272857
aF109.37240543765049
aF0.9005766229895332
aF109.58208347210032
aF1.2772292121048643
aF110.49420196385856
aF0.8331783057651858
aF112.06681658880106
aF110.99963100816639
aF24.0
aa(lp27
F4.4080311715844385
aF4.474093596019571
aF4.294519844211082
aF4.640770536669677
aF4.170327615745864
aF1.0575014966472764
aF0.9955943351252247
aF109.30706659337483
aF0.8924694137758166
aF109.532489274791
aF1.2899245147691458
aF110.49559876726062
aF0.83301044554086
aF112.07091482481478
aF110.96754026504588
aF24.0
aa(lp28
F4.4291390933017
aF4.518834519122237
aF4.337465042359545
aF4.669394831041791
aF4.2002067815597295
aF1.0622111437861144
aF0.9856383944469782
aF109.23265979185149
aF0.8835447324954753
aF109.49462237177764
aF1.3028237581700237
aF110.51480571501999
aF0.8262445791154899
aF112.08589610074944
aF110.94030545443191
aF24.0
aa(lp29
F4.392274561109641
aF4.524168941522865
aF4.3581492067171155
aF4.716088758023455
aF4.223485721744506
aF1.0615185703179029
aF0.978909579677758
aF109.1855705955068
aF0.8838068265772677
aF109.47552599080504
aF1.3158519941926734
aF110.51637684111115
aF0.8179821346436856
aF112.11654278694546
aF110.93862969530137
aF24.0
aa(lp30
F4.348351826803135
aF4.52189895026221
aF4.361476849714081
aF4.743165886144895
aF4.265720567437074
aF1.0620067912289413
aF0.9691204845033909
aF109.15488828333493
aF0.8835183538848153
aF109.46383588015529
aF1.3290105119014435
aF110.53068129189991
aF0.826161176167361
aF112.15491516631997
aF110.99521410253118
aF24.0
aa(lp31
F4.3404724556648135
aF4.528796281450422
aF4.405091617415975
aF4.718512180389409
aF4.291888330388674
aF1.072626858285005
aF0.9594292804894352
aF109.11476964531097
aF0.8746831712021929
aF109.41917615751643
aF1.342300615208992
aF110.59500394522951
aF0.8178995668024693
aF112.21187661148325
aF111.04148865992299
aF24.0
aa(lp32
F4.320447922924942
aF4.549985646323375
aF4.449142532989432
aF4.765697270748026
aF4.299776150012778
aF1.0833531264387635
aF0.9498349882520045
aF108.97987877296104
aF0.8659363399192623
aF109.33101400499265
aF1.3557236195179538
aF110.61528547428534
aF0.8097205729956038
aF112.26374916679308
aF110.99161910647857
aF24.0
aa(lp33
F4.282890954520189
aF4.551957753285835
aF4.4749239858150425
aF4.813354168804594
aF4.342773902648373
aF1.0834386833069063
aF0.9403366396468906
aF108.91998517341601
aF0.8658031772300704
aF109.30521557588582
aF1.359119740733539
aF110.61655832929995
aF0.8019164172160707
aF112.28775807071192
aF110.99413377974895
aF24.0
aa(lp34
F4.2689513342774905
aF4.566110620118806
aF4.509426881248356
aF4.861487695043283
aF4.38620147090657
aF1.0853367051381706
aF0.9364144794656046
aF108.86986154412833
aF0.8640437304632885
aF109.27795029325587
aF1.3727109300124554
aF110.60976900757284
aF0.7955832219104378
aF112.29175859507737
aF110.980617727797
aF24.0
aa(lp35
F4.250167350504763
aF4.556162555188665
aF4.5061180384102695
aF4.862222456623759
aF4.390298493288121
aF1.084593035790832
aF0.9356127813747882
aF108.84554166992099
aF0.8648626149368402
aF109.26752161934225
aF1.3781503498378809
aF110.61320239621834
aF0.803539042211344
aF112.28587149367084
aF110.98071677042392
aF24.0
aa(lp36
F4.260190404188544
aF4.558373246008774
aF4.516721426978921
aF4.853670494414892
aF4.396130871082942
aF1.08790305865946
aF0.9323260078373607
aF108.82572305296792
aF0.8626569762068509
aF109.24545306610625
aF1.3919318452580514
aF110.61786381493998
aF0.8064109282118117
aF112.28995545225851
aF110.98944825931278
aF24.0
aa(lp37
F4.270775430297445
aF4.570329770765182
aF4.5417229684094504
aF4.902207197087742
aF4.377224049215366
aF1.0987820887694453
aF0.9230027487544223
aF108.67313817790586
aF0.8540304069213916
aF109.1434245853362
aF1.405851161410765
aF110.60690712263657
aF0.7983468200569724
aF112.3558589571891
aF110.93458442557025
aF24.0
aa(lp38
F4.261104415545673
aF4.564077414342036
aF4.5402140313576345
aF4.937659445150171
aF4.353638449574744
aF1.0960310483389053
aF0.926789853719964
aF108.68154034190906
aF0.8559098306198023
aF109.14112318579993
aF1.408642190350006
aF110.59938026686362
aF0.7903633641954683
aF112.36979197928211
aF110.91136172248578
aF24.0
aa(lp39
F4.270007590706835
aF4.60971818778623
aF4.494811891310061
aF4.987036039157502
aF4.310102073129597
aF1.1069913579231208
aF0.9175219552627926
aF108.48013894044968
aF0.8473507327069514
aF108.92888851649563
aF1.4227286113078093
aF110.41078567169151
aF0.7824597310048658
aF112.31216073199414
aF110.84314668368401
aF24.0
aa(lp40
F4.312707661564096
aF4.6558153685893515
aF4.464769310916871
aF4.937165702084137
aF4.267001054776819
aF1.1154112872014454
aF0.9083467361348969
aF108.44100811480413
aF0.8388772264546204
aF108.92341716814141
aF1.4369558952221266
aF110.44646017140438
aF0.7746351355097975
aF112.35877227660936
aF110.86484678341375
aF24.0
aa(lp41
F4.35583473620649
aF4.647779617358297
aF4.468828033828697
aF4.887794053058651
aF4.252127910582376
aF1.1252773695418623
aF0.8992632693647535
aF108.38571696658862
aF0.8317776510281396
aF108.82938148570419
aF1.4513254531216646
aF110.4522229833369
aF0.7668887856154448
aF112.40692774294796
aF110.88540240328138
aF24.0
aa(lp42
F4.390289276981292
aF4.667366106083928
aF4.469878545800845
aF4.897533804844676
aF4.262856252250261
aF1.1277677215739341
aF0.9028675560852736
aF108.41819063000149
aF0.8297281954581746
aF108.84634990213128
aF1.4658387057296691
aF110.45528027799942
aF0.7745576705069447
aF112.4313594904858
aF110.91618023922594
aF24.0
aa(lp43
F4.346386385254846
aF4.714039766704925
aF4.425179760527089
aF4.9239724572736705
aF4.26490860597788
aF1.121404273640563
aF0.9118962313205139
aF108.49716506758615
aF0.8214309139434355
aF108.83977832132881
aF1.4804970926933025
aF110.36363376365979
aF0.782303246278677
aF112.64044059687149
aF111.26476471357456
aF24.0
aa(lp44
F4.351464524027096
aF4.718921178602439
aF4.425983869905791
aF4.962073238122677
aF4.307557683728696
aF1.1249481678138675
aF0.9027772710863188
aF108.50812975262964
aF0.8193587648862195
aF108.8462981615695
aF1.4953020421677952
aF110.38555996114927
aF0.7901262690927399
aF112.71295563497007
aF111.35349539167517
aF24.0
aa(lp45
F4.393735310049319
aF4.73303595331471
aF4.463852748706969
aF4.9272184091017905
aF4.32273827854796
aF1.1361976492831234
aF0.8999893537556356
aF108.52853291505016
aF0.8111651774462401
aF108.82538829083722
aF1.5102550619596984
aF110.43762128998716
aF0.7822250074220303
aF112.77138823820408
aF111.40522622438739
aF24.0
aa(lp46
F4.435039653500978
aF4.761604406731656
aF4.485533241696921
aF4.910819280116183
aF4.338004718606139
aF1.14275465012323
aF0.9018011223395591
aF108.50364902396065
aF0.8067590789875185
aF108.79782548289563
aF1.52535761216002
aF110.43231624864087
aF0.7744027590894753
aF112.77872567682151
aF111.40373413199107
aF24.0
aa(lp47
F4.4242354252129905
aF4.746097841054476
aF4.530388572162069
aF4.9150533646575765
aF4.357844579917582
aF1.1541821963293848
aF0.8927831123458081
aF108.36115413666647
aF0.7986914884927211
aF108.67115607948507
aF1.5406111870837307
aF110.45465809990189
aF0.7666587333677792
aF112.79847330053992
aF111.36091229405717
aF24.0
aa(lp48
F4.45580867750155
aF4.793558817421639
aF4.525235922429461
aF4.964203897750932
aF4.40142302546172
aF1.1484724206705825
aF0.8894167194149363
aF108.23060927224421
aF0.7907045756511772
aF108.5690793618785
aF1.556017298630364
aF110.34856213132018
aF0.7589921465030532
aF112.76949339001183
aF111.32849888330954
aF24.0
aa(lp49
F4.500366736455499
aF4.82794798222201
aF4.53629655162282
aF4.967883207353831
aF4.413945619535369
aF1.1524158990364717
aF0.8928650982085575
aF108.25073775058361
aF0.7874511404985374
aF108.58204135207171
aF1.5715774692897067
aF110.3449718816696
aF0.758431659689047
aF112.78528267495602
aF111.34217999343505
aF24.0
aa.