(lp0
(lp1
F3.999750986579461
aF3.9791068653791686
aF4.013757653201668
aF4.011578347500571
aF4.000537007894928
aF0.9992287929264171
aF1.0039793729430588
aF111.00922879292641
aF1.0073864796370577
aF111.01397937294306
aF1.0030626383641559
aF111.00146552052702
aF0.991465520527021
aF111.01306263836415
aF111.01738647963704
aF28.0
aa(lp2
F3.7396171560277405
aF3.9791068653791686
aF4.013757653201668
aF4.011578347500571
aF4.000537007894928
aF0.24958354108604525
aF0.252004
aF110.76179799834601
aF1.0073864796370577
aF111.01397937294306
aF1.0030626383641559
aF111.00146552052702
aF0.991465520527021
aF111.01306263836415
aF111.01738647963704
aF32.0
aa(lp3
F3.73958244
aF3.9792270399999996
aF4.01361156
aF4.00920529
aF4.000400010000001
aF0.24960016
aF0.25080064
aF110.76089049000001
aF1.0074136900000001
aF111.01361769000002
aF1.0201
aF111.00097449
aF0.994009
aF110.88089999999998
aF111.01783225
aF36.0
aa(lp4
F3.9792270399999996
aF4.01361156
aF4.00920529
aF4.000400010000001
aF3.73958244
aF1.0074136900000001
aF0.24960016
aF111.01361769000002
aF1.0201
aF111.00097449
aF0.994009
aF110.88089999999998
aF0.25080064
aF111.01783225
aF110.76089049000001
aF36.0
aa(lp5
F4.01361156
aF4.00920529
aF4.000400010000001
aF3.73958244
aF3.9792270399999996
aF1.0201
aF1.0074136900000001
aF111.00097449
aF0.994009
aF110.88089999999998
aF0.25080064
aF111.01783225
aF0.24960016
aF110.76089049000001
aF111.01361769000002
aF36.0
aa(lp6
F3.8060491686581917
aF4.000400010000001
aF3.73958244
aF3.77835844
aF4.01361156
aF0.5143358804350876
aF0.5041
aF110.71864801199217
aF0.25080064
aF111.01783225
aF0.044099999999999986
aF110.76089049000001
aF0.5112249999999998
aF110.79878120999999
aF111.00097449
aF36.0
aa(lp7
F4.5252555046661715
aF4.000400010000001
aF3.73958244
aF3.77835844
aF4.01361156
aF0.1465571693016599
aF1.4641
aF111.59864801199221
aF0.25080064
aF111.01783225
aF0.044099999999999986
aF110.76089049000001
aF0.5112249999999998
aF110.79878120999999
aF111.00097449
aF40.0
aa(lp8
F3.8963224844125732
aF3.73958244
aF3.77835844
aF4.01361156
aF4.561090788291073
aF0.16486142462247408
aF1.5400810000000003
aF110.9207729070389
aF0.044099999999999986
aF110.76089049000001
aF0.5112249999999998
aF110.79878120999999
aF1.4641000000000004
aF111.00097449
aF111.63743605199221
aF40.0
aa(lp9
F3.73958244
aF3.77835844
aF4.01361156
aF4.561090788291073
aF3.8963224844125732
aF0.044099999999999986
aF0.16486142462247408
aF110.76089049000001
aF0.5112249999999998
aF110.79878120999999
aF1.4641000000000004
aF111.00097449
aF1.5400810000000003
aF111.63743605199221
aF110.9207729070389
aF40.0
aa(lp10
F3.77835844
aF4.01361156
aF4.561090788291073
aF3.8963224844125732
aF3.73958244
aF0.5112249999999998
aF0.044099999999999986
aF110.79878120999999
aF1.4641000000000004
aF111.00097449
aF1.5400810000000003
aF111.63743605199221
aF0.16486142462247408
aF110.9207729070389
aF110.76089049000001
aF40.0
aa(lp11
F3.7411244024552635
aF4.01361156
aF4.561214489999999
aF3.89628121
aF3.73958244
aF0.26475211606599147
aF0.00403225
aF110.75248185956607
aF1.4641
aF111.00097449
aF1.5400810000000003
aF111.51360000000001
aF0.16646399999999997
aF110.92091761
aF110.76089049000001
aF44.0
aa(lp12
F3.7411296399999996
aF4.01361156
aF4.561214489999999
aF3.89628121
aF3.73958244
aF0.26471025
aF0.00403225
aF110.75247120999998
aF1.4641
aF111.00097449
aF1.5376
aF111.408025
aF0.16646399999999997
aF110.92091761
aF110.76089049000001
aF48.0
aa.