(lp0
(dp1
S'L67'
p2
F10.523425719195549
sS'L47'
p3
F11.018225653098355
sS'L45'
p4
F8.090776043794547
sS'L56'
p5
F6.835578580780784
sS'L57'
p6
F12.578301996724335
sS'L14'
p7
F3.7995821423285365
sS'L15'
p8
F7.132947257200495
sS'L16'
p9
F1.9359440058195132
sS'L23'
p10
F1.558066609696144
sS'L12'
p11
F2.0444324326623664
sS'L13'
p12
F2.1782231632503666
sS'L37'
p13
F10.572028681489757
sS'L34'
p14
F4.1382484694953146
sS'L27'
p15
F10.544121754144454
saF0.6993938095713292
a.