(lp0
(dp1
S'L67'
p2
F4.5
sS'L47'
p3
F2.0
sS'L45'
p4
F2.8
sS'L56'
p5
F4.18
sS'L57'
p6
F2.5
sS'L14'
p7
F2.5
sS'L15'
p8
F2.7
sS'L16'
p9
F3.5
sS'L23'
p10
F0.5
sS'L12'
p11
F1.077032961426901
sS'L13'
p12
F1.00498756211209
sS'L37'
p13
F1.47186955943793
sS'L34'
p14
F2.1
sS'L27'
p15
F1.848350616089924
saF3.7999999999999994
a.