(lp0
(dp1
(I1
I2
tp2
F1.99993774567597
s(I2
I7
tp3
F10.53609172287933
s(I4
I7
tp4
F12.831335036787282
s(I2
I6
tp5
F1.001987710974071
s(I6
I7
tp6
F10.53647884635266
s(I5
I6
tp7
F3.674491243171125
s(I5
I7
tp8
F10.99293129764172
s(I1
I4
tp9
F7.588587051351411
s(I1
I5
tp10
F3.7261764241301862
s(I1
I3
tp11
F1.9347054477961303
s(I1
I6
tp12
F2.000134247468136
s(I4
I5
tp13
F6.531621207935738
s(I3
I7
tp14
F10.524592180929439
s(I3
I4
tp15
F7.3736846540081995
s(I2
I3
tp16
F0.5698832598284466
saF1.001987710974071
a.