(lp0
(dp1
S'L67'
p2
F2.05635810311561
sS'L47'
p3
F1.99846497342335
sS'L45'
p4
F1.00554077490672
sS'L56'
p5
F0.996142560078625
sS'L57'
p6
F1.98932149236869
sS'L14'
p7
F10.3120185827024
sS'L15'
p8
F10.3156349780321
sS'L16'
p9
F10.3266511996871
sS'L23'
p10
F0.999999999999996
sS'L12'
p11
F10.3123724234533
sS'L13'
p12
F10.409371979135
sS'L37'
p13
F2.44436085715673
sS'L34'
p14
F1.01300160414483
sS'L27'
p15
F1.99371512508683
saF1.07
a.