(lp0
(dp1
S'L67'
p2
F10.5357
sS'L47'
p3
F10.5243
sS'L45'
p4
F0.21
sS'L56'
p5
F0.715
sS'L57'
p6
F10.5261
sS'L14'
p7
F1.9338
sS'L15'
p8
F1.9438
sS'L16'
p9
F2.0034
sS'L23'
p10
F0.40302785857572065
sS'L12'
p11
F2.135671039343624
sS'L13'
p12
F2.0001
sS'L37'
p13
F10.5365
sS'L34'
p14
F0.5008
sS'L27'
p15
F10.565861822491916
saF1.2100000000000002
a.